target datalayout = "e-m:e-p270:32:32-p271:32:32-p272:64:64-i64:64-i128:128-f80:128-n8:16:32:64-S128"
target triple = "x86_64-pc-linux-gnu"

%struct.UCMapping = type { i32, %union.anon, i8, i8, i8, i8 }
%union.anon = type { i32 }
%struct.UCMTable = type { ptr, i32, i32, ptr, i32, i32, ptr, i32, i32, ptr, i8, i8, i8 }

; Function Attrs: mustprogress uwtable
define void @ucm_moveMappings(ptr noundef %0, ptr noundef %1) #0 {
  %3 = alloca ptr, align 8
  %4 = alloca ptr, align 8
  %5 = alloca ptr, align 8
  %6 = alloca ptr, align 8
  %7 = alloca i8, align 1
  store ptr %0, ptr %3, align 8, !tbaa !3
  store ptr %1, ptr %4, align 8, !tbaa !3
  call void @llvm.lifetime.start.p0(i64 8, ptr %5) #12
  call void @llvm.lifetime.start.p0(i64 8, ptr %6) #12
  call void @llvm.lifetime.start.p0(i64 1, ptr %7) #12
  %8 = load ptr, ptr %3, align 8, !tbaa !3
  %9 = getelementptr inbounds nuw %struct.UCMTable, ptr %8, i32 0, i32 0
  %10 = load ptr, ptr %9, align 8, !tbaa !30
  store ptr %10, ptr %5, align 8, !tbaa !8
  %11 = load ptr, ptr %5, align 8, !tbaa !8
  %12 = load ptr, ptr %3, align 8, !tbaa !3
  %13 = getelementptr inbounds nuw %struct.UCMTable, ptr %12, i32 0, i32 2
  %14 = load i32, ptr %13, align 4, !tbaa !31
  %15 = sext i32 %14 to i64
  %16 = getelementptr inbounds %struct.UCMapping, ptr %11, i64 %15
  store ptr %16, ptr %6, align 8, !tbaa !8
  br label %17

17:                                               ; preds = %104, %2
  %18 = load ptr, ptr %5, align 8, !tbaa !8
  %19 = load ptr, ptr %6, align 8, !tbaa !8
  %20 = icmp ult ptr %18, %19
  br i1 %20, label %21, label %105

21:                                               ; preds = %17
  %22 = load ptr, ptr %5, align 8, !tbaa !8
  %23 = getelementptr inbounds nuw %struct.UCMapping, ptr %22, i32 0, i32 5
  %24 = load i8, ptr %23, align 1, !tbaa !41
  store i8 %24, ptr %7, align 1, !tbaa !22
  %25 = load i8, ptr %7, align 1, !tbaa !22
  %26 = sext i8 %25 to i32
  %27 = icmp ne i32 %26, 0
  br i1 %27, label %28, label %101

28:                                               ; preds = %21
  %29 = load ptr, ptr %5, align 8, !tbaa !8
  %30 = getelementptr inbounds nuw %struct.UCMapping, ptr %29, i32 0, i32 5
  store i8 0, ptr %30, align 1, !tbaa !41
  %31 = load ptr, ptr %4, align 8, !tbaa !3
  %32 = icmp ne ptr %31, null
  br i1 %32, label %33, label %80

33:                                               ; preds = %28
  %34 = load i8, ptr %7, align 1, !tbaa !22
  %35 = sext i8 %34 to i32
  %36 = and i32 %35, 1
  %37 = icmp ne i32 %36, 0
  br i1 %37, label %38, label %80

38:                                               ; preds = %33
  %39 = load ptr, ptr %4, align 8, !tbaa !3
  %40 = load ptr, ptr %5, align 8, !tbaa !8
  %41 = load ptr, ptr %5, align 8, !tbaa !8
  %42 = getelementptr inbounds nuw %struct.UCMapping, ptr %41, i32 0, i32 2
  %43 = load i8, ptr %42, align 4, !tbaa !12
  %44 = sext i8 %43 to i32
  %45 = icmp eq i32 %44, 1
  br i1 %45, label %46, label %49

46:                                               ; preds = %38
  %47 = load ptr, ptr %5, align 8, !tbaa !8
  %48 = getelementptr inbounds nuw %struct.UCMapping, ptr %47, i32 0, i32 0
  br label %58

49:                                               ; preds = %38
  %50 = load ptr, ptr %3, align 8, !tbaa !3
  %51 = getelementptr inbounds nuw %struct.UCMTable, ptr %50, i32 0, i32 3
  %52 = load ptr, ptr %51, align 8, !tbaa !15
  %53 = load ptr, ptr %5, align 8, !tbaa !8
  %54 = getelementptr inbounds nuw %struct.UCMapping, ptr %53, i32 0, i32 0
  %55 = load i32, ptr %54, align 4, !tbaa !19
  %56 = sext i32 %55 to i64
  %57 = getelementptr inbounds i32, ptr %52, i64 %56
  br label %58

58:                                               ; preds = %49, %46
  %59 = phi ptr [ %48, %46 ], [ %57, %49 ]
  %60 = load ptr, ptr %5, align 8, !tbaa !8
  %61 = getelementptr inbounds nuw %struct.UCMapping, ptr %60, i32 0, i32 3
  %62 = load i8, ptr %61, align 1, !tbaa !20
  %63 = sext i8 %62 to i32
  %64 = icmp sle i32 %63, 4
  br i1 %64, label %65, label %69

65:                                               ; preds = %58
  %66 = load ptr, ptr %5, align 8, !tbaa !8
  %67 = getelementptr inbounds nuw %struct.UCMapping, ptr %66, i32 0, i32 1
  %68 = getelementptr inbounds [4 x i8], ptr %67, i64 0, i64 0
  br label %78

69:                                               ; preds = %58
  %70 = load ptr, ptr %3, align 8, !tbaa !3
  %71 = getelementptr inbounds nuw %struct.UCMTable, ptr %70, i32 0, i32 6
  %72 = load ptr, ptr %71, align 8, !tbaa !21
  %73 = load ptr, ptr %5, align 8, !tbaa !8
  %74 = getelementptr inbounds nuw %struct.UCMapping, ptr %73, i32 0, i32 1
  %75 = load i32, ptr %74, align 4, !tbaa !22
  %76 = zext i32 %75 to i64
  %77 = getelementptr inbounds nuw i8, ptr %72, i64 %76
  br label %78

78:                                               ; preds = %69, %65
  %79 = phi ptr [ %68, %65 ], [ %77, %69 ]
  call void @ucm_addMapping(ptr noundef %39, ptr noundef %40, ptr noundef %59, ptr noundef %79)
  br label %80

80:                                               ; preds = %78, %33, %28
  %81 = load ptr, ptr %5, align 8, !tbaa !8
  %82 = load ptr, ptr %6, align 8, !tbaa !8
  %83 = getelementptr inbounds %struct.UCMapping, ptr %82, i64 -1
  %84 = icmp ult ptr %81, %83
  br i1 %84, label %85, label %92

85:                                               ; preds = %80
  br label %86

86:                                               ; preds = %85
  %87 = load ptr, ptr %5, align 8, !tbaa !8
  %88 = load ptr, ptr %6, align 8, !tbaa !8
  %89 = getelementptr inbounds %struct.UCMapping, ptr %88, i64 -1
  call void @llvm.memcpy.p0.p0.i64(ptr align 4 %87, ptr align 4 %89, i64 12, i1 false)
  br label %90

90:                                               ; preds = %86
  br label %91

91:                                               ; preds = %90
  br label %92

92:                                               ; preds = %91, %80
  %93 = load ptr, ptr %6, align 8, !tbaa !8
  %94 = getelementptr inbounds %struct.UCMapping, ptr %93, i32 -1
  store ptr %94, ptr %6, align 8, !tbaa !8
  %95 = load ptr, ptr %3, align 8, !tbaa !3
  %96 = getelementptr inbounds nuw %struct.UCMTable, ptr %95, i32 0, i32 2
  %97 = load i32, ptr %96, align 4, !tbaa !31
  %98 = add nsw i32 %97, -1
  store i32 %98, ptr %96, align 4, !tbaa !31
  %99 = load ptr, ptr %3, align 8, !tbaa !3
  %100 = getelementptr inbounds nuw %struct.UCMTable, ptr %99, i32 0, i32 12
  store i8 0, ptr %100, align 2, !tbaa !35
  br label %104

101:                                              ; preds = %21
  %102 = load ptr, ptr %5, align 8, !tbaa !8
  %103 = getelementptr inbounds nuw %struct.UCMapping, ptr %102, i32 1
  store ptr %103, ptr %5, align 8, !tbaa !8
  br label %104

104:                                              ; preds = %101, %92
  br label %17, !llvm.loop !42

105:                                              ; preds = %17
  call void @llvm.lifetime.end.p0(i64 1, ptr %7) #12
  call void @llvm.lifetime.end.p0(i64 8, ptr %6) #12
  call void @llvm.lifetime.end.p0(i64 8, ptr %5) #12
  ret void
}