; Function Attrs: mustprogress uwtable
define void @ucm_moveMappings(ptr noundef captures(none) %0, ptr noundef %1) local_unnamed_addr #2 {
  %3 = getelementptr inbounds nuw i8, ptr %0, i64 12
  %4 = load i32, ptr %3, align 4, !tbaa !24
  %5 = icmp sgt i32 %4, 0
  br i1 %5, label %.lr.ph, label %._crit_edge

.lr.ph:                                           ; preds = %2
  %6 = zext nneg i32 %4 to i64
  %7 = load ptr, ptr %0, align 8, !tbaa !23
  %8 = getelementptr inbounds nuw %struct.UCMapping, ptr %7, i64 %6
  %.not32 = icmp eq ptr %1, null
  %9 = getelementptr inbounds nuw i8, ptr %0, i64 16
  %10 = getelementptr inbounds nuw i8, ptr %0, i64 32
  %11 = getelementptr inbounds nuw i8, ptr %0, i64 58
  br i1 %.not32, label %.lr.ph.split.us, label %.lr.ph.split

.lr.ph.split.us:                                  ; preds = %.lr.ph, %24
  %12 = phi i32 [ %25, %24 ], [ %4, %.lr.ph ]
  %.035.us = phi ptr [ %.1.us, %24 ], [ %7, %.lr.ph ]
  %.02734.us = phi ptr [ %.128.us, %24 ], [ %8, %.lr.ph ]
  %13 = getelementptr inbounds nuw i8, ptr %.035.us, i64 11
  %14 = load i8, ptr %13, align 1, !tbaa !37
  %.not.us = icmp eq i8 %14, 0
  br i1 %.not.us, label %22, label %15

15:                                               ; preds = %.lr.ph.split.us
  store i8 0, ptr %13, align 1, !tbaa !37
  %16 = getelementptr inbounds i8, ptr %.02734.us, i64 -12
  %17 = icmp ult ptr %.035.us, %16
  br i1 %17, label %18, label %19

18:                                               ; preds = %15
  tail call void @llvm.memcpy.p0.p0.i64(ptr noundef nonnull align 4 dereferenceable(12) %.035.us, ptr noundef nonnull align 4 dereferenceable(12) %16, i64 12, i1 false)
  %.pre = load i32, ptr %3, align 4, !tbaa !24
  br label %19

19:                                               ; preds = %18, %15
  %20 = phi i32 [ %.pre, %18 ], [ %12, %15 ]
  %21 = add nsw i32 %20, -1
  store i32 %21, ptr %3, align 4, !tbaa !24
  store i8 0, ptr %11, align 2, !tbaa !28
  br label %24

22:                                               ; preds = %.lr.ph.split.us
  %23 = getelementptr inbounds nuw i8, ptr %.035.us, i64 12
  br label %24

24:                                               ; preds = %22, %19
  %25 = phi i32 [ %21, %19 ], [ %12, %22 ]
  %.128.us = phi ptr [ %16, %19 ], [ %.02734.us, %22 ]
  %.1.us = phi ptr [ %.035.us, %19 ], [ %23, %22 ]
  %26 = icmp ult ptr %.1.us, %.128.us
  br i1 %26, label %.lr.ph.split.us, label %._crit_edge, !llvm.loop !38

.lr.ph.split:                                     ; preds = %.lr.ph, %64
  %.035 = phi ptr [ %.1, %64 ], [ %7, %.lr.ph ]
  %.02734 = phi ptr [ %.128, %64 ], [ %8, %.lr.ph ]
  %27 = getelementptr inbounds nuw i8, ptr %.035, i64 11
  %28 = load i8, ptr %27, align 1, !tbaa !37
  %.not = icmp eq i8 %28, 0
  br i1 %.not, label %62, label %29

29:                                               ; preds = %.lr.ph.split
  store i8 0, ptr %27, align 1, !tbaa !37
  %30 = and i8 %28, 1
  %.not33 = icmp eq i8 %30, 0
  br i1 %.not33, label %55, label %31

31:                                               ; preds = %29
  %32 = getelementptr inbounds nuw i8, ptr %.035, i64 8
  %33 = load i8, ptr %32, align 4, !tbaa !3
  %34 = icmp eq i8 %33, 1
  br i1 %34, label %40, label %35

35:                                               ; preds = %31
  %36 = load ptr, ptr %9, align 8, !tbaa !8
  %37 = load i32, ptr %.035, align 4, !tbaa !14
  %38 = sext i32 %37 to i64
  %39 = getelementptr inbounds i32, ptr %36, i64 %38
  br label %40

40:                                               ; preds = %31, %35
  %41 = phi ptr [ %39, %35 ], [ %.035, %31 ]
  %42 = getelementptr inbounds nuw i8, ptr %.035, i64 9
  %43 = load i8, ptr %42, align 1, !tbaa !15
  %44 = icmp slt i8 %43, 5
  br i1 %44, label %45, label %47

45:                                               ; preds = %40
  %46 = getelementptr inbounds nuw i8, ptr %.035, i64 4
  br label %53

47:                                               ; preds = %40
  %48 = load ptr, ptr %10, align 8, !tbaa !16
  %49 = getelementptr inbounds nuw i8, ptr %.035, i64 4
  %50 = load i32, ptr %49, align 4, !tbaa !17
  %51 = zext i32 %50 to i64
  %52 = getelementptr inbounds nuw i8, ptr %48, i64 %51
  br label %53

53:                                               ; preds = %47, %45
  %54 = phi ptr [ %46, %45 ], [ %52, %47 ]
  tail call void @ucm_addMapping(ptr noundef nonnull %1, ptr noundef nonnull %.035, ptr noundef %41, ptr noundef %54)
  br label %55

55:                                               ; preds = %53, %29
  %56 = getelementptr inbounds i8, ptr %.02734, i64 -12
  %57 = icmp ult ptr %.035, %56
  br i1 %57, label %58, label %59

58:                                               ; preds = %55
  tail call void @llvm.memcpy.p0.p0.i64(ptr noundef nonnull align 4 dereferenceable(12) %.035, ptr noundef nonnull align 4 dereferenceable(12) %56, i64 12, i1 false)
  br label %59

59:                                               ; preds = %58, %55
  %60 = load i32, ptr %3, align 4, !tbaa !24
  %61 = add nsw i32 %60, -1
  store i32 %61, ptr %3, align 4, !tbaa !24
  store i8 0, ptr %11, align 2, !tbaa !28
  br label %64

62:                                               ; preds = %.lr.ph.split
  %63 = getelementptr inbounds nuw i8, ptr %.035, i64 12
  br label %64

64:                                               ; preds = %62, %59
  %.128 = phi ptr [ %56, %59 ], [ %.02734, %62 ]
  %.1 = phi ptr [ %.035, %59 ], [ %63, %62 ]
  %65 = icmp ult ptr %.1, %.128
  br i1 %65, label %.lr.ph.split, label %._crit_edge, !llvm.loop !38

._crit_edge:                                      ; preds = %64, %24, %2
  ret void
}